target datalayout = "e-m:e-p270:32:32-p271:32:32-p272:64:64-i64:64-i128:128-f80:128-n8:16:32:64-S128"
target triple = "x86_64-pc-linux-gnu"

%struct._dfilter_loc = type { i64, i64 }
%struct.dfwork_t = type { ptr, i32, ptr, i32, ptr, ptr, ptr, ptr, i32, i32, ptr, ptr, ptr, ptr, ptr, ptr, i32 }

@.str = private unnamed_addr constant [8 x i8] c"DFilter\00", align 1
@.str.1 = private unnamed_addr constant [24 x i8] c"epan/dfilter/semcheck.c\00", align 1
@.str.3 = private unnamed_addr constant [31 x i8] c"assertion \22not reached\22 failed\00", align 1
@__func__.dfilter_fvalue_from_number = private unnamed_addr constant [27 x i8] c"dfilter_fvalue_from_number\00", align 1

; Function Attrs: null_pointer_is_valid sspstrong uwtable
define hidden void @dfilter_fvalue_from_number(ptr noundef %0, i32 noundef %1, ptr noundef %2) #0 {
  %4 = alloca ptr, align 8
  %5 = alloca i32, align 4
  %6 = alloca ptr, align 8
  %7 = alloca ptr, align 8
  %8 = alloca ptr, align 8
  %9 = alloca ptr, align 8
  %10 = alloca i32, align 4
  %11 = alloca %struct._dfilter_loc, align 8
  store ptr %0, ptr %4, align 8
  store i32 %1, ptr %5, align 4
  store ptr %2, ptr %6, align 8
  call void @llvm.lifetime.start.p0(i64 8, ptr %7) #8
  store ptr null, ptr %7, align 8
  call void @llvm.lifetime.start.p0(i64 8, ptr %8) #8
  %12 = load ptr, ptr %6, align 8
  %13 = call ptr @stnode_token(ptr noundef %12)
  store ptr %13, ptr %8, align 8
  call void @llvm.lifetime.start.p0(i64 8, ptr %9) #8
  store ptr null, ptr %9, align 8
  call void @llvm.lifetime.start.p0(i64 4, ptr %10) #8
  %14 = load ptr, ptr %6, align 8
  %15 = call i32 @sttype_number_get_type(ptr noundef %14)
  store i32 %15, ptr %10, align 4
  %16 = load i32, ptr %5, align 4
  %17 = icmp eq i32 %16, 47
  br i1 %17, label %18, label %24

18:                                               ; preds = %3
  %19 = load i32, ptr %10, align 4
  switch i32 %19, label %23 [
    i32 1, label %20
    i32 2, label %20
    i32 3, label %21
    i32 0, label %22
  ]

20:                                               ; preds = %18, %18
  store i32 19, ptr %5, align 4
  br label %23

21:                                               ; preds = %18
  store i32 23, ptr %5, align 4
  br label %23

22:                                               ; preds = %18
  call void (ptr, i32, ptr, i64, ptr, ptr, ...) @ws_log_fatal_full(ptr noundef @.str, i32 noundef 7, ptr noundef @.str.1, i64 noundef 333, ptr noundef @__func__.dfilter_fvalue_from_number, ptr noundef @.str.3) #7
  unreachable

23:                                               ; preds = %18, %21, %20
  br label %24

24:                                               ; preds = %23, %3
  %25 = load i32, ptr %10, align 4
  switch i32 %25, label %45 [
    i32 1, label %26
    i32 2, label %32
    i32 3, label %38
    i32 0, label %44
  ]

26:                                               ; preds = %24
  %27 = load i32, ptr %5, align 4
  %28 = load ptr, ptr %8, align 8
  %29 = load ptr, ptr %6, align 8
  %30 = call i64 @sttype_number_get_integer(ptr noundef %29)
  %31 = call ptr @fvalue_from_sinteger64(i32 noundef %27, ptr noundef %28, i64 noundef %30, ptr noundef %9)
  store ptr %31, ptr %7, align 8
  br label %45

32:                                               ; preds = %24
  %33 = load i32, ptr %5, align 4
  %34 = load ptr, ptr %8, align 8
  %35 = load ptr, ptr %6, align 8
  %36 = call i64 @sttype_number_get_unsigned(ptr noundef %35)
  %37 = call ptr @fvalue_from_uinteger64(i32 noundef %33, ptr noundef %34, i64 noundef %36, ptr noundef %9)
  store ptr %37, ptr %7, align 8
  br label %45

38:                                               ; preds = %24
  %39 = load i32, ptr %5, align 4
  %40 = load ptr, ptr %8, align 8
  %41 = load ptr, ptr %6, align 8
  %42 = call double @sttype_number_get_float(ptr noundef %41)
  %43 = call ptr @fvalue_from_floating(i32 noundef %39, ptr noundef %40, double noundef %42, ptr noundef %9)
  store ptr %43, ptr %7, align 8
  br label %45

44:                                               ; preds = %24
  call void (ptr, i32, ptr, i64, ptr, ptr, ...) @ws_log_fatal_full(ptr noundef @.str, i32 noundef 7, ptr noundef @.str.1, i64 noundef 351, ptr noundef @__func__.dfilter_fvalue_from_number, ptr noundef @.str.3) #7
  unreachable

45:                                               ; preds = %24, %38, %32, %26
  %46 = load ptr, ptr %7, align 8
  %47 = icmp ne ptr %46, null
  br i1 %47, label %48, label %52

48:                                               ; preds = %45
  %49 = load ptr, ptr %9, align 8
  call void @g_free(ptr noundef %49)
  %50 = load ptr, ptr %6, align 8
  %51 = load ptr, ptr %7, align 8
  call void @stnode_replace(ptr noundef %50, i32 noundef 9, ptr noundef %51)
  call void @llvm.lifetime.end.p0(i64 4, ptr %10) #8
  call void @llvm.lifetime.end.p0(i64 8, ptr %9) #8
  call void @llvm.lifetime.end.p0(i64 8, ptr %8) #8
  call void @llvm.lifetime.end.p0(i64 8, ptr %7) #8
  ret void

52:                                               ; preds = %45
  br label %53

53:                                               ; preds = %52
  %54 = load ptr, ptr %9, align 8
  %55 = icmp ne ptr %54, null
  br i1 %55, label %56, label %66

56:                                               ; preds = %53
  %57 = load ptr, ptr %4, align 8
  %58 = getelementptr inbounds nuw %struct.dfwork_t, ptr %57, i32 0, i32 0
  %59 = load ptr, ptr %58, align 8
  %60 = icmp eq ptr %59, null
  br i1 %60, label %61, label %66

61:                                               ; preds = %56
  %62 = load ptr, ptr %9, align 8
  %63 = call ptr @df_error_new(i32 noundef -1, ptr noundef %62, ptr noundef null)
  %64 = load ptr, ptr %4, align 8
  %65 = getelementptr inbounds nuw %struct.dfwork_t, ptr %64, i32 0, i32 0
  store ptr %63, ptr %65, align 8
  br label %68

66:                                               ; preds = %56, %53
  %67 = load ptr, ptr %9, align 8
  call void @g_free(ptr noundef %67)
  br label %68

68:                                               ; preds = %66, %61
  br label %69

69:                                               ; preds = %68
  br label %70

70:                                               ; preds = %69
  %71 = load ptr, ptr %4, align 8
  %72 = load ptr, ptr %6, align 8
  %73 = call { i64, i64 } @stnode_location(ptr noundef %72)
  %74 = getelementptr inbounds nuw { i64, i64 }, ptr %11, i32 0, i32 0
  %75 = extractvalue { i64, i64 } %73, 0
  store i64 %75, ptr %74, align 8
  %76 = getelementptr inbounds nuw { i64, i64 }, ptr %11, i32 0, i32 1
  %77 = extractvalue { i64, i64 } %73, 1
  store i64 %77, ptr %76, align 8
  %78 = getelementptr inbounds nuw { i64, i64 }, ptr %11, i32 0, i32 0
  %79 = load i64, ptr %78, align 8
  %80 = getelementptr inbounds nuw { i64, i64 }, ptr %11, i32 0, i32 1
  %81 = load i64, ptr %80, align 8
  call void @dfw_set_error_location(ptr noundef %71, i64 %79, i64 %81)
  br label %82

82:                                               ; preds = %70
  br label %83

83:                                               ; preds = %82
  br label %84

84:                                               ; preds = %83
  br label %85

85:                                               ; preds = %84
  call void @except_throw(i64 noundef 1, i64 noundef 5, ptr noundef null) #7
  unreachable

86:                                               ; No predecessors!
  br label %87

87:                                               ; preds = %86
  call void (ptr, i32, ptr, i64, ptr, ptr, ...) @ws_log_fatal_full(ptr noundef @.str, i32 noundef 7, ptr noundef @.str.1, i64 noundef 364, ptr noundef @__func__.dfilter_fvalue_from_number, ptr noundef @.str.3) #7
  unreachable
}