; Function Attrs: null_pointer_is_valid sspstrong uwtable
define hidden void @dfilter_fvalue_from_number(ptr noundef %0, i32 noundef %1, ptr noundef %2) local_unnamed_addr #0 {
  %4 = alloca ptr, align 8
  %5 = tail call ptr @stnode_token(ptr noundef %2)
  call void @llvm.lifetime.start.p0(i64 8, ptr nonnull %4) #8
  store ptr null, ptr %4, align 8
  %6 = tail call i32 @sttype_number_get_type(ptr noundef %2)
  %7 = icmp eq i32 %1, 47
  br i1 %7, label %8, label %11

8:                                                ; preds = %3
  switch i32 %6, label %11 [
    i32 1, label %9
    i32 2, label %9
    i32 3, label %.thread
    i32 0, label %10
  ]

9:                                                ; preds = %8, %8
  br label %11

10:                                               ; preds = %8
  tail call void (ptr, i32, ptr, i64, ptr, ptr, ...) @ws_log_fatal_full(ptr noundef nonnull @.str, i32 noundef 7, ptr noundef nonnull @.str.1, i64 noundef 333, ptr noundef nonnull @__func__.dfilter_fvalue_from_number, ptr noundef nonnull @.str.3) #7
  unreachable

11:                                               ; preds = %8, %9, %3
  %.0 = phi i32 [ 47, %8 ], [ 19, %9 ], [ %1, %3 ]
  switch i32 %6, label %.thread26.thread [
    i32 1, label %12
    i32 2, label %15
    i32 3, label %.thread
    i32 0, label %20
  ]

12:                                               ; preds = %11
  %13 = tail call i64 @sttype_number_get_integer(ptr noundef %2)
  %14 = call ptr @fvalue_from_sinteger64(i32 noundef %.0, ptr noundef %5, i64 noundef %13, ptr noundef nonnull %4)
  br label %21

15:                                               ; preds = %11
  %16 = tail call i64 @sttype_number_get_unsigned(ptr noundef %2)
  %17 = call ptr @fvalue_from_uinteger64(i32 noundef %.0, ptr noundef %5, i64 noundef %16, ptr noundef nonnull %4)
  br label %21

.thread:                                          ; preds = %8, %11
  %.025 = phi i32 [ %.0, %11 ], [ 23, %8 ]
  %18 = tail call double @sttype_number_get_float(ptr noundef %2)
  %19 = call ptr @fvalue_from_floating(i32 noundef %.025, ptr noundef %5, double noundef %18, ptr noundef nonnull %4)
  br label %21

20:                                               ; preds = %11
  tail call void (ptr, i32, ptr, i64, ptr, ptr, ...) @ws_log_fatal_full(ptr noundef nonnull @.str, i32 noundef 7, ptr noundef nonnull @.str.1, i64 noundef 351, ptr noundef nonnull @__func__.dfilter_fvalue_from_number, ptr noundef nonnull @.str.3) #7
  unreachable

21:                                               ; preds = %.thread, %15, %12
  %.020 = phi ptr [ %19, %.thread ], [ %17, %15 ], [ %14, %12 ]
  %.not = icmp eq ptr %.020, null
  %.pre = load ptr, ptr %4, align 8
  br i1 %.not, label %.thread26, label %22

22:                                               ; preds = %21
  call void @g_free(ptr noundef %.pre)
  call void @stnode_replace(ptr noundef %2, i32 noundef 9, ptr noundef nonnull %.020)
  call void @llvm.lifetime.end.p0(i64 8, ptr nonnull %4) #8
  ret void

.thread26:                                        ; preds = %21
  %.not23 = icmp eq ptr %.pre, null
  br i1 %.not23, label %.thread26.thread, label %23

23:                                               ; preds = %.thread26
  %24 = load ptr, ptr %0, align 8
  %25 = icmp eq ptr %24, null
  br i1 %25, label %26, label %.thread26.thread

26:                                               ; preds = %23
  %27 = call ptr @df_error_new(i32 noundef -1, ptr noundef nonnull %.pre, ptr noundef null)
  store ptr %27, ptr %0, align 8
  br label %29

.thread26.thread:                                 ; preds = %11, %23, %.thread26
  %28 = phi ptr [ %.pre, %23 ], [ null, %.thread26 ], [ null, %11 ]
  call void @g_free(ptr noundef %28)
  br label %29

29:                                               ; preds = %.thread26.thread, %26
  %30 = call { i64, i64 } @stnode_location(ptr noundef %2)
  %31 = extractvalue { i64, i64 } %30, 0
  %32 = extractvalue { i64, i64 } %30, 1
  call void @dfw_set_error_location(ptr noundef %0, i64 %31, i64 %32)
  call void @except_throw(i64 noundef 1, i64 noundef 5, ptr noundef null) #7
  unreachable
}